target datalayout = "e-m:e-p270:32:32-p271:32:32-p272:64:64-i64:64-i128:128-f80:128-n8:16:32:64-S128"
target triple = "x86_64-pc-linux-gnu"

%"class.OpenImageIO::v3_1_0::basic_string_view" = type { ptr, i64 }

; Function Attrs: noinline noreturn nounwind uwtable
define linkonce_odr hidden void @__clang_call_terminate(ptr noundef %0) #17 comdat {
  %2 = call ptr @__cxa_begin_catch(ptr %0) #3
  call void @_ZSt9terminatev() #28
  unreachable
}

; Function Attrs: mustprogress nounwind uwtable
define linkonce_odr hidden noundef nonnull align 1 dereferenceable(1) ptr @_ZNK11OpenImageIO6v3_1_017basic_string_viewIcSt11char_traitsIcEEixEm(ptr noundef nonnull align 8 dereferenceable(16) %0, i64 noundef %1) #6 comdat align 2 {
  %3 = alloca ptr, align 8
  %4 = alloca i64, align 8
  store ptr %0, ptr %3, align 8, !tbaa !103
  store i64 %1, ptr %4, align 8, !tbaa !108
  %5 = load ptr, ptr %3, align 8
  %6 = getelementptr inbounds nuw %"class.OpenImageIO::v3_1_0::basic_string_view", ptr %5, i32 0, i32 0
  %7 = load ptr, ptr %6, align 8, !tbaa !109
  %8 = load i64, ptr %4, align 8, !tbaa !108
  %9 = getelementptr inbounds nuw i8, ptr %7, i64 %8
  ret ptr %9
}

; Function Attrs: inlinehint mustprogress nounwind uwtable
define linkonce_odr noundef nonnull align 8 dereferenceable(8) ptr @_ZSt3minImERKT_S2_S2_(ptr noundef nonnull align 8 dereferenceable(8) %0, ptr noundef nonnull align 8 dereferenceable(8) %1) #4 comdat {
  %3 = alloca ptr, align 8
  %4 = alloca ptr, align 8
  %5 = alloca ptr, align 8
  store ptr %0, ptr %4, align 8, !tbaa !131
  store ptr %1, ptr %5, align 8, !tbaa !131
  %6 = load ptr, ptr %5, align 8, !tbaa !131
  %7 = load i64, ptr %6, align 8, !tbaa !108
  %8 = load ptr, ptr %4, align 8, !tbaa !131
  %9 = load i64, ptr %8, align 8, !tbaa !108
  %10 = icmp ult i64 %7, %9
  br i1 %10, label %11, label %13

11:                                               ; preds = %2
  %12 = load ptr, ptr %5, align 8, !tbaa !131
  store ptr %12, ptr %3, align 8
  br label %15

13:                                               ; preds = %2
  %14 = load ptr, ptr %4, align 8, !tbaa !131
  store ptr %14, ptr %3, align 8
  br label %15

15:                                               ; preds = %13, %11
  %16 = load ptr, ptr %3, align 8
  ret ptr %16
}

; Function Attrs: mustprogress nounwind uwtable
define linkonce_odr hidden noundef i64 @_ZNK11OpenImageIO6v3_1_017basic_string_viewIcSt11char_traitsIcEE4sizeEv(ptr noundef nonnull align 8 dereferenceable(16) %0) #6 comdat align 2 {
  %2 = alloca ptr, align 8
  store ptr %0, ptr %2, align 8, !tbaa !103
  %3 = load ptr, ptr %2, align 8
  %4 = getelementptr inbounds nuw %"class.OpenImageIO::v3_1_0::basic_string_view", ptr %3, i32 0, i32 1
  %5 = load i64, ptr %4, align 8, !tbaa !105
  ret i64 %5
}

; Function Attrs: mustprogress nounwind uwtable
define noundef ptr @_ZN11OpenImageIO6v3_1_07Strutil11safe_strcatEPcNS0_17basic_string_viewIcSt11char_traitsIcEEEm(ptr noundef %0, ptr noundef %1, i64 noundef %2) #6 personality ptr @__gxx_personality_v0 {
  %4 = alloca ptr, align 8
  %5 = alloca ptr, align 8
  %6 = alloca i64, align 8
  %7 = alloca i64, align 8
  %8 = alloca i64, align 8
  %9 = alloca i64, align 8
  %10 = alloca i64, align 8
  %11 = alloca i64, align 8
  store ptr %0, ptr %4, align 8, !tbaa !10
  store ptr %1, ptr %5, align 8, !tbaa !103
  store i64 %2, ptr %6, align 8, !tbaa !108
  %12 = call noundef i64 @_ZNK11OpenImageIO6v3_1_017basic_string_viewIcSt11char_traitsIcEE4sizeEv(ptr noundef nonnull align 8 dereferenceable(16) %1) #3
  %13 = icmp ne i64 %12, 0
  br i1 %13, label %14, label %50

14:                                               ; preds = %3
  call void @llvm.lifetime.start.p0(i64 8, ptr %7) #3
  %15 = load ptr, ptr %4, align 8, !tbaa !10
  %16 = load i64, ptr %6, align 8, !tbaa !108
  %17 = call i64 @strnlen(ptr noundef %15, i64 noundef %16) #30
  store i64 %17, ptr %7, align 8, !tbaa !108
  call void @llvm.lifetime.start.p0(i64 8, ptr %8) #3
  call void @llvm.lifetime.start.p0(i64 8, ptr %9) #3
  %18 = load i64, ptr %6, align 8, !tbaa !108
  %19 = load i64, ptr %7, align 8, !tbaa !108
  %20 = sub i64 %18, %19
  %21 = sub i64 %20, 1
  store i64 %21, ptr %9, align 8, !tbaa !108
  call void @llvm.lifetime.start.p0(i64 8, ptr %10) #3
  %22 = call noundef i64 @_ZNK11OpenImageIO6v3_1_017basic_string_viewIcSt11char_traitsIcEE4sizeEv(ptr noundef nonnull align 8 dereferenceable(16) %1) #3
  store i64 %22, ptr %10, align 8, !tbaa !108
  %23 = invoke noundef nonnull align 8 dereferenceable(8) ptr @_ZSt3minImERKT_S2_S2_(ptr noundef nonnull align 8 dereferenceable(8) %9, ptr noundef nonnull align 8 dereferenceable(8) %10)
          to label %24 unwind label %52

24:                                               ; preds = %14
  %25 = load i64, ptr %23, align 8, !tbaa !108
  call void @llvm.lifetime.end.p0(i64 8, ptr %10) #3
  call void @llvm.lifetime.end.p0(i64 8, ptr %9) #3
  store i64 %25, ptr %8, align 8, !tbaa !108
  call void @llvm.lifetime.start.p0(i64 8, ptr %11) #3
  store i64 0, ptr %11, align 8, !tbaa !108
  br label %26

26:                                               ; preds = %41, %24
  %27 = load i64, ptr %11, align 8, !tbaa !108
  %28 = load i64, ptr %8, align 8, !tbaa !108
  %29 = icmp ult i64 %27, %28
  br i1 %29, label %31, label %30

30:                                               ; preds = %26
  call void @llvm.lifetime.end.p0(i64 8, ptr %11) #3
  br label %44

31:                                               ; preds = %26
  %32 = load i64, ptr %11, align 8, !tbaa !108
  %33 = invoke noundef nonnull align 1 dereferenceable(1) ptr @_ZNK11OpenImageIO6v3_1_017basic_string_viewIcSt11char_traitsIcEEixEm(ptr noundef nonnull align 8 dereferenceable(16) %1, i64 noundef %32)
          to label %34 unwind label %52

34:                                               ; preds = %31
  %35 = load i8, ptr %33, align 1, !tbaa !8
  %36 = load ptr, ptr %4, align 8, !tbaa !10
  %37 = load i64, ptr %7, align 8, !tbaa !108
  %38 = load i64, ptr %11, align 8, !tbaa !108
  %39 = add i64 %37, %38
  %40 = getelementptr inbounds nuw i8, ptr %36, i64 %39
  store i8 %35, ptr %40, align 1, !tbaa !8
  br label %41

41:                                               ; preds = %34
  %42 = load i64, ptr %11, align 8, !tbaa !108
  %43 = add i64 %42, 1
  store i64 %43, ptr %11, align 8, !tbaa !108
  br label %26, !llvm.loop !245

44:                                               ; preds = %30
  %45 = load ptr, ptr %4, align 8, !tbaa !10
  %46 = load i64, ptr %7, align 8, !tbaa !108
  %47 = load i64, ptr %8, align 8, !tbaa !108
  %48 = add i64 %46, %47
  %49 = getelementptr inbounds nuw i8, ptr %45, i64 %48
  store i8 0, ptr %49, align 1, !tbaa !8
  call void @llvm.lifetime.end.p0(i64 8, ptr %8) #3
  call void @llvm.lifetime.end.p0(i64 8, ptr %7) #3
  br label %50

50:                                               ; preds = %44, %3
  %51 = load ptr, ptr %4, align 8, !tbaa !10
  ret ptr %51

52:                                               ; preds = %31, %14
  %53 = landingpad { ptr, i32 }
          catch ptr null
  %54 = extractvalue { ptr, i32 } %53, 0
  call void @__clang_call_terminate(ptr %54) #28
  unreachable
}