; Function Attrs: mustprogress nofree nounwind memory(read, argmem: readwrite, inaccessiblemem: none) uwtable
define noundef ptr @_ZN11OpenImageIO6v3_1_07Strutil11safe_strcatEPcNS0_17basic_string_viewIcSt11char_traitsIcEEEm(ptr noundef returned %0, ptr noundef readonly captures(none) %1, i64 noundef %2) local_unnamed_addr #26 personality ptr @__gxx_personality_v0 {
  %4 = getelementptr inbounds nuw i8, ptr %1, i64 8
  %5 = load i64, ptr %4, align 8, !tbaa !64
  %.not = icmp eq i64 %5, 0
  br i1 %.not, label %19, label %6

6:                                                ; preds = %3
  %7 = tail call i64 @strnlen(ptr noundef %0, i64 noundef %2) #49
  %8 = xor i64 %7, -1
  %9 = add i64 %2, %8
  %.sroa.speculated = tail call i64 @llvm.umin.i64(i64 %5, i64 %9)
  %.not19 = icmp eq i64 %9, 0
  br i1 %.not19, label %._crit_edge, label %.lr.ph

.lr.ph:                                           ; preds = %6
  %10 = getelementptr i8, ptr %0, i64 %7
  %umax = tail call i64 @llvm.umax.i64(i64 %.sroa.speculated, i64 1)
  br label %13

._crit_edge:                                      ; preds = %13, %6
  %11 = getelementptr i8, ptr %0, i64 %7
  %12 = getelementptr i8, ptr %11, i64 %.sroa.speculated
  store i8 0, ptr %12, align 1, !tbaa !3
  br label %19

13:                                               ; preds = %.lr.ph, %13
  %.018 = phi i64 [ 0, %.lr.ph ], [ %18, %13 ]
  %14 = load ptr, ptr %1, align 8, !tbaa !67
  %15 = getelementptr inbounds nuw i8, ptr %14, i64 %.018
  %16 = load i8, ptr %15, align 1, !tbaa !3
  %17 = getelementptr i8, ptr %10, i64 %.018
  store i8 %16, ptr %17, align 1, !tbaa !3
  %18 = add nuw i64 %.018, 1
  %exitcond.not = icmp eq i64 %18, %umax
  br i1 %exitcond.not, label %._crit_edge, label %13, !llvm.loop !350

19:                                               ; preds = %._crit_edge, %3
  ret ptr %0
}